; ModuleID = '20/41.c'
source_filename = "20/41.c"
target datalayout = "e-m:e-p270:32:32-p271:32:32-p272:64:64-i64:64-f80:128-n8:16:32:64-S128"
target triple = "x86_64-pc-linux-gnu"

@.str = private unnamed_addr constant [4 x i8] c"%s\0A\00", align 1
@.str.1 = private unnamed_addr constant [6 x i8] c"%s %s\00", align 1

; Function Attrs: noinline nounwind uwtable
define dso_local void @p_s(i8* %0, i8* %1) #0 {
  %3 = alloca i8*, align 8
  %4 = alloca i8*, align 8
  %5 = alloca i32, align 4
  %6 = alloca i32, align 4
  %7 = alloca i32, align 4
  %8 = alloca [13 x i8], align 1
  store i8* %0, i8** %3, align 8
  store i8* %1, i8** %4, align 8
  %9 = bitcast [13 x i8]* %8 to i8*
  call void @llvm.memset.p0i8.i64(i8* align 1 %9, i8 0, i64 13, i1 false)
  %10 = load i8*, i8** %3, align 8
  %11 = call i64 @strlen(i8* %10) #4
  %12 = trunc i64 %11 to i32
  store i32 %12, i32* %7, align 4
  store i32 0, i32* %5, align 4
  store i32 0, i32* %6, align 4
  br label %13

13:                                               ; preds = %34, %2
  %14 = load i32, i32* %5, align 4
  %15 = load i32, i32* %7, align 4
  %16 = icmp slt i32 %14, %15
  br i1 %16, label %17, label %37

17:                                               ; preds = %13
  %18 = load i8*, i8** %3, align 8
  %19 = load i32, i32* %6, align 4
  %20 = sext i32 %19 to i64
  %21 = getelementptr inbounds i8, i8* %18, i64 %20
  %22 = load i8, i8* %21, align 1
  %23 = sext i8 %22 to i32
  %24 = load i8*, i8** %3, align 8
  %25 = load i32, i32* %5, align 4
  %26 = sext i32 %25 to i64
  %27 = getelementptr inbounds i8, i8* %24, i64 %26
  %28 = load i8, i8* %27, align 1
  %29 = sext i8 %28 to i32
  %30 = icmp slt i32 %23, %29
  br i1 %30, label %31, label %33

31:                                               ; preds = %17
  %32 = load i32, i32* %5, align 4
  store i32 %32, i32* %6, align 4
  br label %33

33:                                               ; preds = %31, %17
  br label %34

34:                                               ; preds = %33
  %35 = load i32, i32* %5, align 4
  %36 = add nsw i32 %35, 1
  store i32 %36, i32* %5, align 4
  br label %13

37:                                               ; preds = %13
  store i32 0, i32* %5, align 4
  br label %38

38:                                               ; preds = %85, %37
  %39 = load i32, i32* %5, align 4
  %40 = load i32, i32* %7, align 4
  %41 = add nsw i32 %40, 3
  %42 = icmp slt i32 %39, %41
  br i1 %42, label %43, label %88

43:                                               ; preds = %38
  %44 = load i32, i32* %5, align 4
  %45 = load i32, i32* %6, align 4
  %46 = icmp sle i32 %44, %45
  br i1 %46, label %47, label %54

47:                                               ; preds = %43
  %48 = load i8*, i8** %3, align 8
  %49 = load i32, i32* %5, align 4
  %50 = sext i32 %49 to i64
  %51 = getelementptr inbounds i8, i8* %48, i64 %50
  %52 = load i8, i8* %51, align 1
  %53 = sext i8 %52 to i32
  br label %79

54:                                               ; preds = %43
  %55 = load i32, i32* %5, align 4
  %56 = load i32, i32* %6, align 4
  %57 = add nsw i32 %56, 3
  %58 = icmp sle i32 %55, %57
  br i1 %58, label %59, label %69

59:                                               ; preds = %54
  %60 = load i8*, i8** %4, align 8
  %61 = load i32, i32* %5, align 4
  %62 = load i32, i32* %6, align 4
  %63 = sub nsw i32 %61, %62
  %64 = sub nsw i32 %63, 1
  %65 = sext i32 %64 to i64
  %66 = getelementptr inbounds i8, i8* %60, i64 %65
  %67 = load i8, i8* %66, align 1
  %68 = sext i8 %67 to i32
  br label %77

69:                                               ; preds = %54
  %70 = load i8*, i8** %3, align 8
  %71 = load i32, i32* %5, align 4
  %72 = sub nsw i32 %71, 3
  %73 = sext i32 %72 to i64
  %74 = getelementptr inbounds i8, i8* %70, i64 %73
  %75 = load i8, i8* %74, align 1
  %76 = sext i8 %75 to i32
  br label %77

77:                                               ; preds = %69, %59
  %78 = phi i32 [ %68, %59 ], [ %76, %69 ]
  br label %79

79:                                               ; preds = %77, %47
  %80 = phi i32 [ %53, %47 ], [ %78, %77 ]
  %81 = trunc i32 %80 to i8
  %82 = load i32, i32* %5, align 4
  %83 = sext i32 %82 to i64
  %84 = getelementptr inbounds [13 x i8], [13 x i8]* %8, i64 0, i64 %83
  store i8 %81, i8* %84, align 1
  br label %85

85:                                               ; preds = %79
  %86 = load i32, i32* %5, align 4
  %87 = add nsw i32 %86, 1
  store i32 %87, i32* %5, align 4
  br label %38

88:                                               ; preds = %38
  %89 = getelementptr inbounds [13 x i8], [13 x i8]* %8, i64 0, i64 0
  %90 = call i32 (i8*, ...) @printf(i8* getelementptr inbounds ([4 x i8], [4 x i8]* @.str, i64 0, i64 0), i8* %89)
  ret void
}

; Function Attrs: argmemonly nounwind willreturn
declare void @llvm.memset.p0i8.i64(i8* nocapture writeonly, i8, i64, i1 immarg) #1

; Function Attrs: nounwind readonly
declare dso_local i64 @strlen(i8*) #2

declare dso_local i32 @printf(i8*, ...) #3

; Function Attrs: noinline nounwind uwtable
define dso_local void @main() #0 {
  %1 = alloca i32, align 4
  %2 = alloca i32, align 4
  %3 = alloca [10 x [10 x i8]], align 16
  %4 = alloca [10 x [3 x i8]], align 16
  store i32 0, i32* %1, align 4
  br label %5

5:                                                ; preds = %17, %0
  %6 = load i32, i32* %1, align 4
  %7 = sext i32 %6 to i64
  %8 = getelementptr inbounds [10 x [10 x i8]], [10 x [10 x i8]]* %3, i64 0, i64 %7
  %9 = getelementptr inbounds [10 x i8], [10 x i8]* %8, i64 0, i64 0
  %10 = load i32, i32* %1, align 4
  %11 = sext i32 %10 to i64
  %12 = getelementptr inbounds [10 x [3 x i8]], [10 x [3 x i8]]* %4, i64 0, i64 %11
  %13 = getelementptr inbounds [3 x i8], [3 x i8]* %12, i64 0, i64 0
  %14 = call i32 (i8*, ...) @__isoc99_scanf(i8* getelementptr inbounds ([6 x i8], [6 x i8]* @.str.1, i64 0, i64 0), i8* %9, i8* %13)
  %15 = icmp ne i32 %14, -1
  br i1 %15, label %16, label %20

16:                                               ; preds = %5
  br label %17

17:                                               ; preds = %16
  %18 = load i32, i32* %1, align 4
  %19 = add nsw i32 %18, 1
  store i32 %19, i32* %1, align 4
  br label %5

20:                                               ; preds = %5
  store i32 0, i32* %2, align 4
  br label %21

21:                                               ; preds = %34, %20
  %22 = load i32, i32* %2, align 4
  %23 = load i32, i32* %1, align 4
  %24 = icmp slt i32 %22, %23
  br i1 %24, label %25, label %37

25:                                               ; preds = %21
  %26 = load i32, i32* %2, align 4
  %27 = sext i32 %26 to i64
  %28 = getelementptr inbounds [10 x [10 x i8]], [10 x [10 x i8]]* %3, i64 0, i64 %27
  %29 = getelementptr inbounds [10 x i8], [10 x i8]* %28, i64 0, i64 0
  %30 = load i32, i32* %2, align 4
  %31 = sext i32 %30 to i64
  %32 = getelementptr inbounds [10 x [3 x i8]], [10 x [3 x i8]]* %4, i64 0, i64 %31
  %33 = getelementptr inbounds [3 x i8], [3 x i8]* %32, i64 0, i64 0
  call void @p_s(i8* %29, i8* %33)
  br label %34

34:                                               ; preds = %25
  %35 = load i32, i32* %2, align 4
  %36 = add nsw i32 %35, 1
  store i32 %36, i32* %2, align 4
  br label %21

37:                                               ; preds = %21
  ret void
}

declare dso_local i32 @__isoc99_scanf(i8*, ...) #3


!llvm.module.flags = !{!0}
!llvm.ident = !{!1}

!0 = !{i32 1, !"wchar_size", i32 4}
!1 = !{!"clang version 10.0.0-4ubuntu1 "}
